; ModuleID = '58/741.c'
source_filename = "58/741.c"
target datalayout = "e-m:e-p270:32:32-p271:32:32-p272:64:64-i64:64-f80:128-n8:16:32:64-S128"
target triple = "x86_64-pc-linux-gnu"

@f = common dso_local global [80 x i32] zeroinitializer, align 16
@j = common dso_local global i32 0, align 4
@i = common dso_local global i32 0, align 4
@.str = private unnamed_addr constant [4 x i8] c"%d\0A\00", align 1
@k = common dso_local global i32 0, align 4
@.str.1 = private unnamed_addr constant [3 x i8] c"%d\00", align 1

; Function Attrs: noinline nounwind uwtable
define dso_local i32 @panduan() #0 {
  %1 = alloca [80 x i8], align 16
  %2 = alloca i32, align 4
  %3 = getelementptr inbounds [80 x i8], [80 x i8]* %1, i64 0, i64 0
  %4 = call i32 (i8*, ...) bitcast (i32 (...)* @gets to i32 (i8*, ...)*)(i8* %3)
  %5 = getelementptr inbounds [80 x i8], [80 x i8]* %1, i64 0, i64 0
  %6 = call i64 @strlen(i8* %5) #3
  %7 = trunc i64 %6 to i32
  store i32 %7, i32* %2, align 4
  %8 = getelementptr inbounds [80 x i8], [80 x i8]* %1, i64 0, i64 0
  %9 = load i8, i8* %8, align 16
  %10 = sext i8 %9 to i32
  %11 = icmp eq i32 %10, 95
  br i1 %11, label %32, label %12

12:                                               ; preds = %0
  %13 = getelementptr inbounds [80 x i8], [80 x i8]* %1, i64 0, i64 0
  %14 = load i8, i8* %13, align 16
  %15 = sext i8 %14 to i32
  %16 = icmp sle i32 %15, 90
  br i1 %16, label %17, label %22

17:                                               ; preds = %12
  %18 = getelementptr inbounds [80 x i8], [80 x i8]* %1, i64 0, i64 0
  %19 = load i8, i8* %18, align 16
  %20 = sext i8 %19 to i32
  %21 = icmp sge i32 %20, 65
  br i1 %21, label %32, label %22

22:                                               ; preds = %17, %12
  %23 = getelementptr inbounds [80 x i8], [80 x i8]* %1, i64 0, i64 0
  %24 = load i8, i8* %23, align 16
  %25 = sext i8 %24 to i32
  %26 = icmp sle i32 %25, 122
  br i1 %26, label %27, label %98

27:                                               ; preds = %22
  %28 = getelementptr inbounds [80 x i8], [80 x i8]* %1, i64 0, i64 0
  %29 = load i8, i8* %28, align 16
  %30 = sext i8 %29 to i32
  %31 = icmp sge i32 %30, 97
  br i1 %31, label %32, label %98

32:                                               ; preds = %27, %17, %0
  %33 = load i32, i32* @j, align 4
  %34 = sext i32 %33 to i64
  %35 = getelementptr inbounds [80 x i32], [80 x i32]* @f, i64 0, i64 %34
  store i32 1, i32* %35, align 4
  store i32 1, i32* @i, align 4
  br label %36

36:                                               ; preds = %96, %32
  %37 = load i32, i32* @i, align 4
  %38 = load i32, i32* %2, align 4
  %39 = icmp slt i32 %37, %38
  br i1 %39, label %40, label %97

40:                                               ; preds = %36
  %41 = load i32, i32* @i, align 4
  %42 = sext i32 %41 to i64
  %43 = getelementptr inbounds [80 x i8], [80 x i8]* %1, i64 0, i64 %42
  %44 = load i8, i8* %43, align 1
  %45 = sext i8 %44 to i32
  %46 = icmp slt i32 %45, 65
  br i1 %46, label %47, label %54

47:                                               ; preds = %40
  %48 = load i32, i32* @i, align 4
  %49 = sext i32 %48 to i64
  %50 = getelementptr inbounds [80 x i8], [80 x i8]* %1, i64 0, i64 %49
  %51 = load i8, i8* %50, align 1
  %52 = sext i8 %51 to i32
  %53 = icmp sgt i32 %52, 58
  br i1 %53, label %89, label %54

54:                                               ; preds = %47, %40
  %55 = load i32, i32* @i, align 4
  %56 = sext i32 %55 to i64
  %57 = getelementptr inbounds [80 x i8], [80 x i8]* %1, i64 0, i64 %56
  %58 = load i8, i8* %57, align 1
  %59 = sext i8 %58 to i32
  %60 = icmp slt i32 %59, 48
  br i1 %60, label %89, label %61

61:                                               ; preds = %54
  %62 = load i32, i32* @i, align 4
  %63 = sext i32 %62 to i64
  %64 = getelementptr inbounds [80 x i8], [80 x i8]* %1, i64 0, i64 %63
  %65 = load i8, i8* %64, align 1
  %66 = sext i8 %65 to i32
  %67 = icmp sgt i32 %66, 90
  br i1 %67, label %68, label %75

68:                                               ; preds = %61
  %69 = load i32, i32* @i, align 4
  %70 = sext i32 %69 to i64
  %71 = getelementptr inbounds [80 x i8], [80 x i8]* %1, i64 0, i64 %70
  %72 = load i8, i8* %71, align 1
  %73 = sext i8 %72 to i32
  %74 = icmp sle i32 %73, 94
  br i1 %74, label %89, label %75

75:                                               ; preds = %68, %61
  %76 = load i32, i32* @i, align 4
  %77 = sext i32 %76 to i64
  %78 = getelementptr inbounds [80 x i8], [80 x i8]* %1, i64 0, i64 %77
  %79 = load i8, i8* %78, align 1
  %80 = sext i8 %79 to i32
  %81 = icmp eq i32 %80, 96
  br i1 %81, label %89, label %82

82:                                               ; preds = %75
  %83 = load i32, i32* @i, align 4
  %84 = sext i32 %83 to i64
  %85 = getelementptr inbounds [80 x i8], [80 x i8]* %1, i64 0, i64 %84
  %86 = load i8, i8* %85, align 1
  %87 = sext i8 %86 to i32
  %88 = icmp sgt i32 %87, 122
  br i1 %88, label %89, label %93

89:                                               ; preds = %82, %75, %68, %54, %47
  %90 = load i32, i32* @j, align 4
  %91 = sext i32 %90 to i64
  %92 = getelementptr inbounds [80 x i32], [80 x i32]* @f, i64 0, i64 %91
  store i32 0, i32* %92, align 4
  br label %97

93:                                               ; preds = %82
  %94 = load i32, i32* @i, align 4
  %95 = add nsw i32 %94, 1
  store i32 %95, i32* @i, align 4
  br label %96

96:                                               ; preds = %93
  br label %36

97:                                               ; preds = %89, %36
  br label %102

98:                                               ; preds = %27, %22
  %99 = load i32, i32* @j, align 4
  %100 = sext i32 %99 to i64
  %101 = getelementptr inbounds [80 x i32], [80 x i32]* @f, i64 0, i64 %100
  store i32 0, i32* %101, align 4
  br label %102

102:                                              ; preds = %98, %97
  %103 = load i32, i32* @j, align 4
  %104 = sext i32 %103 to i64
  %105 = getelementptr inbounds [80 x i32], [80 x i32]* @f, i64 0, i64 %104
  %106 = load i32, i32* %105, align 4
  ret i32 %106
}

declare dso_local i32 @gets(...) #1

; Function Attrs: nounwind readonly
declare dso_local i64 @strlen(i8*) #2

; Function Attrs: noinline nounwind uwtable
define dso_local i32 @main() #0 {
  %1 = alloca i32, align 4
  store i32 0, i32* %1, align 4
  %2 = call i32 (i8*, ...) @__isoc99_scanf(i8* getelementptr inbounds ([4 x i8], [4 x i8]* @.str, i64 0, i64 0), i32* @k)
  store i32 0, i32* @j, align 4
  br label %3

3:                                                ; preds = %9, %0
  %4 = load i32, i32* @j, align 4
  %5 = load i32, i32* @k, align 4
  %6 = icmp slt i32 %4, %5
  br i1 %6, label %7, label %12

7:                                                ; preds = %3
  %8 = call i32 @panduan()
  br label %9

9:                                                ; preds = %7
  %10 = load i32, i32* @j, align 4
  %11 = add nsw i32 %10, 1
  store i32 %11, i32* @j, align 4
  br label %3

12:                                               ; preds = %3
  store i32 0, i32* @j, align 4
  br label %13

13:                                               ; preds = %23, %12
  %14 = load i32, i32* @j, align 4
  %15 = load i32, i32* @k, align 4
  %16 = icmp slt i32 %14, %15
  br i1 %16, label %17, label %26

17:                                               ; preds = %13
  %18 = load i32, i32* @j, align 4
  %19 = sext i32 %18 to i64
  %20 = getelementptr inbounds [80 x i32], [80 x i32]* @f, i64 0, i64 %19
  %21 = load i32, i32* %20, align 4
  %22 = call i32 (i8*, ...) @printf(i8* getelementptr inbounds ([4 x i8], [4 x i8]* @.str, i64 0, i64 0), i32 %21)
  br label %23

23:                                               ; preds = %17
  %24 = load i32, i32* @j, align 4
  %25 = add nsw i32 %24, 1
  store i32 %25, i32* @j, align 4
  br label %13

26:                                               ; preds = %13
  %27 = call i32 (i8*, ...) @__isoc99_scanf(i8* getelementptr inbounds ([3 x i8], [3 x i8]* @.str.1, i64 0, i64 0), i32* @i)
  ret i32 0
}

declare dso_local i32 @__isoc99_scanf(i8*, ...) #1

declare dso_local i32 @printf(i8*, ...) #1


!llvm.module.flags = !{!0}
!llvm.ident = !{!1}

!0 = !{i32 1, !"wchar_size", i32 4}
!1 = !{!"clang version 10.0.0-4ubuntu1 "}
